target datalayout = "e-m:e-p270:32:32-p271:32:32-p272:64:64-i64:64-i128:128-f80:128-n8:16:32:64-S128"
target triple = "x86_64-pc-linux-gnu"

%"class.icu_77::UnicodeString" = type { %"class.icu_77::Replaceable", %"union.icu_77::UnicodeString::StackBufferOrFields" }
%"class.icu_77::Replaceable" = type { %"class.icu_77::UObject" }
%"class.icu_77::UObject" = type { ptr }
%"union.icu_77::UnicodeString::StackBufferOrFields" = type { %struct.anon.0, [32 x i8] }
%struct.anon.0 = type { i16, i32, i32, ptr }
%"class.icu_77::DateIntervalFormat" = type <{ %"class.icu_77::Format", ptr, ptr, ptr, ptr, %"class.icu_77::Locale", %"class.icu_77::UnicodeString", [9 x %"struct.icu_77::DateIntervalFormat::PatternInfo"], ptr, ptr, ptr, i32, [4 x i8] }>
%"class.icu_77::Format" = type { %"class.icu_77::UObject", ptr, ptr }
%"class.icu_77::Locale" = type <{ %"class.icu_77::UObject", [12 x i8], [6 x i8], [4 x i8], [2 x i8], i32, [4 x i8], ptr, [157 x i8], [3 x i8], ptr, i8, [7 x i8] }>
%"struct.icu_77::DateIntervalFormat::PatternInfo" = type <{ %"class.icu_77::UnicodeString", %"class.icu_77::UnicodeString", i8, [7 x i8] }>
%struct.anon = type { i16, [27 x i16] }

@_ZTVN6icu_777UObjectE = available_externally unnamed_addr constant { [5 x ptr] } { [5 x ptr] [ptr null, ptr @_ZTIN6icu_777UObjectE, ptr @_ZN6icu_777UObjectD1Ev, ptr @_ZN6icu_777UObjectD0Ev, ptr @_ZNK6icu_777UObject17getDynamicClassIDEv] }, align 8

; Function Attrs: inlinehint mustprogress nounwind uwtable
define linkonce_odr void @_ZN6icu_777UObjectC2Ev(ptr noundef nonnull align 8 dereferenceable(8) %0) unnamed_addr #2 comdat align 2 {
  %2 = alloca ptr, align 8
  store ptr %0, ptr %2, align 8, !tbaa !87
  %3 = load ptr, ptr %2, align 8
  store ptr getelementptr inbounds inrange(-16, 24) ({ [5 x ptr] }, ptr @_ZTVN6icu_777UObjectE, i32 0, i32 0, i32 2), ptr %3, align 8, !tbaa !27
  ret void
}

; Function Attrs: inlinehint mustprogress nounwind uwtable
define linkonce_odr void @_ZN6icu_7711ReplaceableC2Ev(ptr noundef nonnull align 8 dereferenceable(8) %0) unnamed_addr #2 comdat align 2 {
  %2 = alloca ptr, align 8
  store ptr %0, ptr %2, align 8, !tbaa !169
  %3 = load ptr, ptr %2, align 8
  call void @_ZN6icu_777UObjectC2Ev(ptr noundef nonnull align 8 dereferenceable(8) %3) #12
  store ptr getelementptr inbounds inrange(-16, 88) ({ [13 x ptr] }, ptr @_ZTVN6icu_7711ReplaceableE, i32 0, i32 0, i32 2), ptr %3, align 8, !tbaa !27
  ret void
}

; Function Attrs: inlinehint mustprogress nounwind uwtable
define linkonce_odr void @_ZN6icu_7718DateIntervalFormat11PatternInfoD2Ev(ptr noundef nonnull align 8 dereferenceable(129) %0) unnamed_addr #2 comdat align 2 {
  %2 = alloca ptr, align 8
  store ptr %0, ptr %2, align 8, !tbaa !66
  %3 = load ptr, ptr %2, align 8
  %4 = getelementptr inbounds nuw %"struct.icu_77::DateIntervalFormat::PatternInfo", ptr %3, i32 0, i32 1
  call void @_ZN6icu_7713UnicodeStringD1Ev(ptr noundef nonnull align 8 dereferenceable(64) %4) #12
  %5 = getelementptr inbounds nuw %"struct.icu_77::DateIntervalFormat::PatternInfo", ptr %3, i32 0, i32 0
  call void @_ZN6icu_7713UnicodeStringD1Ev(ptr noundef nonnull align 8 dereferenceable(64) %5) #12
  ret void
}

; Function Attrs: inlinehint mustprogress uwtable
define linkonce_odr void @_ZN6icu_7718DateIntervalFormat11PatternInfoC2Ev(ptr noundef nonnull align 8 dereferenceable(129) %0) unnamed_addr #3 comdat align 2 personality ptr @__gxx_personality_v0 {
  %2 = alloca ptr, align 8
  %3 = alloca ptr, align 8
  %4 = alloca i32, align 4
  store ptr %0, ptr %2, align 8, !tbaa !66
  %5 = load ptr, ptr %2, align 8
  %6 = getelementptr inbounds nuw %"struct.icu_77::DateIntervalFormat::PatternInfo", ptr %5, i32 0, i32 0
  call void @_ZN6icu_7713UnicodeStringC2Ev(ptr noundef nonnull align 8 dereferenceable(64) %6)
  %7 = getelementptr inbounds nuw %"struct.icu_77::DateIntervalFormat::PatternInfo", ptr %5, i32 0, i32 1
  invoke void @_ZN6icu_7713UnicodeStringC2Ev(ptr noundef nonnull align 8 dereferenceable(64) %7)
          to label %8 unwind label %9

8:                                                ; preds = %1
  ret void

9:                                                ; preds = %1
  %10 = landingpad { ptr, i32 }
          cleanup
  %11 = extractvalue { ptr, i32 } %10, 0
  store ptr %11, ptr %3, align 8
  %12 = extractvalue { ptr, i32 } %10, 1
  store i32 %12, ptr %4, align 4
  call void @_ZN6icu_7713UnicodeStringD1Ev(ptr noundef nonnull align 8 dereferenceable(64) %6) #12
  br label %13

13:                                               ; preds = %9
  %14 = load ptr, ptr %3, align 8
  %15 = load i32, ptr %4, align 4
  %16 = insertvalue { ptr, i32 } poison, ptr %14, 0
  %17 = insertvalue { ptr, i32 } %16, i32 %15, 1
  resume { ptr, i32 } %17
}

; Function Attrs: inlinehint mustprogress uwtable
define linkonce_odr void @_ZN6icu_7713UnicodeStringC2Ev(ptr noundef nonnull align 8 dereferenceable(64) %0) unnamed_addr #3 comdat align 2 {
  %2 = alloca ptr, align 8
  store ptr %0, ptr %2, align 8, !tbaa !41
  %3 = load ptr, ptr %2, align 8
  call void @_ZN6icu_7711ReplaceableC2Ev(ptr noundef nonnull align 8 dereferenceable(8) %3)
  store ptr getelementptr inbounds inrange(-16, 88) ({ [13 x ptr] }, ptr @_ZTVN6icu_7713UnicodeStringE, i32 0, i32 0, i32 2), ptr %3, align 8, !tbaa !27
  %4 = getelementptr inbounds nuw %"class.icu_77::UnicodeString", ptr %3, i32 0, i32 1
  %5 = getelementptr inbounds nuw %struct.anon, ptr %4, i32 0, i32 0
  store i16 2, ptr %5, align 8, !tbaa !65
  ret void
}

; Function Attrs: mustprogress uwtable
define void @_ZN6icu_7718DateIntervalFormatC2ERKS0_(ptr noundef nonnull align 8 dereferenceable(1596) %0, ptr noundef nonnull align 8 dereferenceable(1596) %1) unnamed_addr #1 align 2 personality ptr @__gxx_personality_v0 {
  %3 = alloca ptr, align 8
  %4 = alloca ptr, align 8
  %5 = alloca ptr, align 8
  %6 = alloca i32, align 4
  store ptr %0, ptr %3, align 8, !tbaa !39
  store ptr %1, ptr %4, align 8, !tbaa !39
  %7 = load ptr, ptr %3, align 8
  %8 = load ptr, ptr %4, align 8, !tbaa !39
  call void @_ZN6icu_776FormatC2ERKS0_(ptr noundef nonnull align 8 dereferenceable(24) %7, ptr noundef nonnull align 8 dereferenceable(24) %8)
  store ptr getelementptr inbounds inrange(-16, 104) ({ [15 x ptr] }, ptr @_ZTVN6icu_7718DateIntervalFormatE, i32 0, i32 0, i32 2), ptr %7, align 8, !tbaa !27
  %9 = getelementptr inbounds nuw %"class.icu_77::DateIntervalFormat", ptr %7, i32 0, i32 1
  store ptr null, ptr %9, align 8, !tbaa !47
  %10 = getelementptr inbounds nuw %"class.icu_77::DateIntervalFormat", ptr %7, i32 0, i32 2
  store ptr null, ptr %10, align 8, !tbaa !58
  %11 = getelementptr inbounds nuw %"class.icu_77::DateIntervalFormat", ptr %7, i32 0, i32 3
  store ptr null, ptr %11, align 8, !tbaa !59
  %12 = getelementptr inbounds nuw %"class.icu_77::DateIntervalFormat", ptr %7, i32 0, i32 4
  store ptr null, ptr %12, align 8, !tbaa !60
  %13 = getelementptr inbounds nuw %"class.icu_77::DateIntervalFormat", ptr %7, i32 0, i32 5
  %14 = load ptr, ptr %4, align 8, !tbaa !39
  %15 = getelementptr inbounds nuw %"class.icu_77::DateIntervalFormat", ptr %14, i32 0, i32 5
  invoke void @_ZN6icu_776LocaleC1ERKS0_(ptr noundef nonnull align 8 dereferenceable(217) %13, ptr noundef nonnull align 8 dereferenceable(217) %15)
          to label %16 unwind label %35

16:                                               ; preds = %2
  %17 = getelementptr inbounds nuw %"class.icu_77::DateIntervalFormat", ptr %7, i32 0, i32 6
  invoke void @_ZN6icu_7713UnicodeStringC2Ev(ptr noundef nonnull align 8 dereferenceable(64) %17)
          to label %18 unwind label %39

18:                                               ; preds = %16
  %19 = getelementptr inbounds nuw %"class.icu_77::DateIntervalFormat", ptr %7, i32 0, i32 7
  %20 = getelementptr inbounds [9 x %"struct.icu_77::DateIntervalFormat::PatternInfo"], ptr %19, i32 0, i32 0
  %21 = getelementptr inbounds %"struct.icu_77::DateIntervalFormat::PatternInfo", ptr %20, i64 9
  br label %22

22:                                               ; preds = %24, %18
  %23 = phi ptr [ %20, %18 ], [ %25, %24 ]
  invoke void @_ZN6icu_7718DateIntervalFormat11PatternInfoC2Ev(ptr noundef nonnull align 8 dereferenceable(129) %23)
          to label %24 unwind label %43

24:                                               ; preds = %22
  %25 = getelementptr inbounds %"struct.icu_77::DateIntervalFormat::PatternInfo", ptr %23, i64 1
  %26 = icmp eq ptr %25, %21
  br i1 %26, label %27, label %22

27:                                               ; preds = %24
  %28 = getelementptr inbounds nuw %"class.icu_77::DateIntervalFormat", ptr %7, i32 0, i32 8
  store ptr null, ptr %28, align 8, !tbaa !61
  %29 = getelementptr inbounds nuw %"class.icu_77::DateIntervalFormat", ptr %7, i32 0, i32 9
  store ptr null, ptr %29, align 8, !tbaa !62
  %30 = getelementptr inbounds nuw %"class.icu_77::DateIntervalFormat", ptr %7, i32 0, i32 10
  store ptr null, ptr %30, align 8, !tbaa !63
  %31 = getelementptr inbounds nuw %"class.icu_77::DateIntervalFormat", ptr %7, i32 0, i32 11
  store i32 256, ptr %31, align 8, !tbaa !64
  %32 = load ptr, ptr %4, align 8, !tbaa !39
  %33 = invoke noundef nonnull align 8 dereferenceable(1596) ptr @_ZN6icu_7718DateIntervalFormataSERKS0_(ptr noundef nonnull align 8 dereferenceable(1596) %7, ptr noundef nonnull align 8 dereferenceable(1596) %32)
          to label %34 unwind label %53

34:                                               ; preds = %27
  ret void

35:                                               ; preds = %2
  %36 = landingpad { ptr, i32 }
          cleanup
  %37 = extractvalue { ptr, i32 } %36, 0
  store ptr %37, ptr %5, align 8
  %38 = extractvalue { ptr, i32 } %36, 1
  store i32 %38, ptr %6, align 4
  br label %66

39:                                               ; preds = %16
  %40 = landingpad { ptr, i32 }
          cleanup
  %41 = extractvalue { ptr, i32 } %40, 0
  store ptr %41, ptr %5, align 8
  %42 = extractvalue { ptr, i32 } %40, 1
  store i32 %42, ptr %6, align 4
  br label %65

43:                                               ; preds = %22
  %44 = landingpad { ptr, i32 }
          cleanup
  %45 = extractvalue { ptr, i32 } %44, 0
  store ptr %45, ptr %5, align 8
  %46 = extractvalue { ptr, i32 } %44, 1
  store i32 %46, ptr %6, align 4
  %47 = icmp eq ptr %20, %23
  br i1 %47, label %52, label %48

48:                                               ; preds = %48, %43
  %49 = phi ptr [ %23, %43 ], [ %50, %48 ]
  %50 = getelementptr inbounds %"struct.icu_77::DateIntervalFormat::PatternInfo", ptr %49, i64 -1
  call void @_ZN6icu_7718DateIntervalFormat11PatternInfoD2Ev(ptr noundef nonnull align 8 dereferenceable(129) %50) #12
  %51 = icmp eq ptr %50, %20
  br i1 %51, label %52, label %48

52:                                               ; preds = %48, %43
  br label %64

53:                                               ; preds = %27
  %54 = landingpad { ptr, i32 }
          cleanup
  %55 = extractvalue { ptr, i32 } %54, 0
  store ptr %55, ptr %5, align 8
  %56 = extractvalue { ptr, i32 } %54, 1
  store i32 %56, ptr %6, align 4
  %57 = getelementptr inbounds [9 x %"struct.icu_77::DateIntervalFormat::PatternInfo"], ptr %19, i32 0, i32 0
  %58 = getelementptr inbounds %"struct.icu_77::DateIntervalFormat::PatternInfo", ptr %57, i64 9
  br label %59

59:                                               ; preds = %59, %53
  %60 = phi ptr [ %58, %53 ], [ %61, %59 ]
  %61 = getelementptr inbounds %"struct.icu_77::DateIntervalFormat::PatternInfo", ptr %60, i64 -1
  call void @_ZN6icu_7718DateIntervalFormat11PatternInfoD2Ev(ptr noundef nonnull align 8 dereferenceable(129) %61) #12
  %62 = icmp eq ptr %61, %57
  br i1 %62, label %63, label %59

63:                                               ; preds = %59
  br label %64

64:                                               ; preds = %63, %52
  call void @_ZN6icu_7713UnicodeStringD1Ev(ptr noundef nonnull align 8 dereferenceable(64) %17) #12
  br label %65

65:                                               ; preds = %64, %39
  call void @_ZN6icu_776LocaleD1Ev(ptr noundef nonnull align 8 dereferenceable(217) %13) #12
  br label %66

66:                                               ; preds = %65, %35
  call void @_ZN6icu_776FormatD2Ev(ptr noundef nonnull align 8 dereferenceable(24) %7) #12
  br label %67

67:                                               ; preds = %66
  %68 = load ptr, ptr %5, align 8
  %69 = load i32, ptr %6, align 4
  %70 = insertvalue { ptr, i32 } poison, ptr %68, 0
  %71 = insertvalue { ptr, i32 } %70, i32 %69, 1
  resume { ptr, i32 } %71
}