; Function Attrs: mustprogress uwtable
define void @_ZN6icu_7718DateIntervalFormatC2ERKS0_(ptr noundef nonnull align 8 dereferenceable(1596) %0, ptr noundef nonnull align 8 dereferenceable(1596) %1) unnamed_addr #1 align 2 personality ptr @__gxx_personality_v0 {
  tail call void @_ZN6icu_776FormatC2ERKS0_(ptr noundef nonnull align 8 dereferenceable(24) %0, ptr noundef nonnull align 8 dereferenceable(24) %1)
  store ptr getelementptr inbounds nuw inrange(-16, 104) (i8, ptr @_ZTVN6icu_7718DateIntervalFormatE, i64 16), ptr %0, align 8, !tbaa !15
  %3 = getelementptr inbounds nuw i8, ptr %0, i64 24
  %4 = getelementptr inbounds nuw i8, ptr %0, i64 56
  %5 = getelementptr inbounds nuw i8, ptr %1, i64 56
  tail call void @llvm.memset.p0.i64(ptr noundef nonnull align 8 dereferenceable(32) %3, i8 0, i64 32, i1 false)
  invoke void @_ZN6icu_776LocaleC1ERKS0_(ptr noundef nonnull align 8 dereferenceable(217) %4, ptr noundef nonnull align 8 dereferenceable(217) %5)
          to label %6 unwind label %19

6:                                                ; preds = %2
  %7 = getelementptr inbounds nuw i8, ptr %0, i64 280
  store ptr getelementptr inbounds nuw inrange(-16, 88) (i8, ptr @_ZTVN6icu_7713UnicodeStringE, i64 16), ptr %7, align 8, !tbaa !15
  %8 = getelementptr inbounds nuw i8, ptr %0, i64 288
  store i16 2, ptr %8, align 8, !tbaa !25
  br label %9

9:                                                ; preds = %9, %6
  %.idx = phi i64 [ %.add, %9 ], [ 344, %6 ]
  %.ptr.ptr = getelementptr inbounds nuw i8, ptr %0, i64 %.idx
  store ptr getelementptr inbounds nuw inrange(-16, 88) (i8, ptr @_ZTVN6icu_7713UnicodeStringE, i64 16), ptr %.ptr.ptr, align 8, !tbaa !15
  %10 = getelementptr inbounds nuw i8, ptr %.ptr.ptr, i64 8
  store i16 2, ptr %10, align 8, !tbaa !25
  %11 = getelementptr inbounds nuw i8, ptr %.ptr.ptr, i64 64
  store ptr getelementptr inbounds nuw inrange(-16, 88) (i8, ptr @_ZTVN6icu_7713UnicodeStringE, i64 16), ptr %11, align 8, !tbaa !15
  %12 = getelementptr inbounds nuw i8, ptr %.ptr.ptr, i64 72
  store i16 2, ptr %12, align 8, !tbaa !25
  %.add = add nuw nsw i64 %.idx, 136
  %13 = icmp samesign eq i64 %.add, 1568
  br i1 %13, label %14, label %9

14:                                               ; preds = %9
  %15 = getelementptr inbounds nuw i8, ptr %0, i64 1568
  %16 = getelementptr inbounds nuw i8, ptr %0, i64 1592
  tail call void @llvm.memset.p0.i64(ptr noundef nonnull align 8 dereferenceable(24) %15, i8 0, i64 24, i1 false)
  store i32 256, ptr %16, align 8, !tbaa !35
  %17 = invoke noundef nonnull align 8 dereferenceable(1596) ptr @_ZN6icu_7718DateIntervalFormataSERKS0_(ptr noundef nonnull align 8 dereferenceable(1596) %0, ptr noundef nonnull align 8 dereferenceable(1596) %1)
          to label %18 unwind label %21

18:                                               ; preds = %14
  ret void

19:                                               ; preds = %2
  %20 = landingpad { ptr, i32 }
          cleanup
  br label %27

21:                                               ; preds = %14
  %22 = landingpad { ptr, i32 }
          cleanup
  br label %23

23:                                               ; preds = %23, %21
  %.idx17 = phi i64 [ 1568, %21 ], [ %.add18, %23 ]
  %.add18 = add nsw i64 %.idx17, -136
  %.ptr19 = getelementptr inbounds i8, ptr %0, i64 %.add18
  %24 = getelementptr inbounds nuw i8, ptr %.ptr19, i64 64
  tail call void @_ZN6icu_7713UnicodeStringD1Ev(ptr noundef nonnull align 8 dereferenceable(64) %24) #19
  tail call void @_ZN6icu_7713UnicodeStringD1Ev(ptr noundef nonnull align 8 dereferenceable(129) %.ptr19) #19
  %25 = icmp eq i64 %.add18, 344
  br i1 %25, label %26, label %23

26:                                               ; preds = %23
  tail call void @_ZN6icu_7713UnicodeStringD1Ev(ptr noundef nonnull align 8 dereferenceable(64) %7) #19
  tail call void @_ZN6icu_776LocaleD1Ev(ptr noundef nonnull align 8 dereferenceable(217) %4) #19
  br label %27

27:                                               ; preds = %26, %19
  %.pn.pn.pn = phi { ptr, i32 } [ %22, %26 ], [ %20, %19 ]
  tail call void @_ZN6icu_776FormatD2Ev(ptr noundef nonnull align 8 dereferenceable(24) %0) #19
  resume { ptr, i32 } %.pn.pn.pn
}